; Function Attrs: nounwind uwtable
define void @Dch_ClassesCollectOneClass(ptr noundef readonly captures(none) %0, ptr noundef readonly captures(none) %1, ptr noundef captures(none) initializes((4, 8)) %2) local_unnamed_addr #0 {
  %4 = getelementptr inbounds nuw i8, ptr %2, i64 4
  store i32 0, ptr %4, align 4, !tbaa !24
  %5 = getelementptr inbounds nuw i8, ptr %0, i64 16
  %6 = getelementptr inbounds nuw i8, ptr %1, i64 36
  %7 = load ptr, ptr %5, align 8, !tbaa !27
  %8 = load i32, ptr %6, align 4, !tbaa !38
  %9 = sext i32 %8 to i64
  %10 = getelementptr inbounds i32, ptr %7, i64 %9
  %11 = load i32, ptr %10, align 4, !tbaa !39
  %12 = icmp sgt i32 %11, 0
  br i1 %12, label %.lr.ph, label %._crit_edge

.lr.ph:                                           ; preds = %3
  %13 = getelementptr inbounds nuw i8, ptr %0, i64 8
  %.phi.trans.insert.i = getelementptr inbounds nuw i8, ptr %2, i64 8
  br label %14

14:                                               ; preds = %.lr.ph, %53
  %15 = phi i32 [ %8, %.lr.ph ], [ %54, %53 ]
  %16 = phi ptr [ %7, %.lr.ph ], [ %55, %53 ]
  %17 = phi i32 [ 0, %.lr.ph ], [ %56, %53 ]
  %indvars.iv = phi i64 [ 0, %.lr.ph ], [ %indvars.iv.next, %53 ]
  %18 = phi i64 [ %9, %.lr.ph ], [ %57, %53 ]
  %19 = load ptr, ptr %13, align 8, !tbaa !26
  %20 = getelementptr inbounds ptr, ptr %19, i64 %18
  %21 = load ptr, ptr %20, align 8, !tbaa !40
  %22 = getelementptr inbounds nuw ptr, ptr %21, i64 %indvars.iv
  %23 = load ptr, ptr %22, align 8, !tbaa !41
  %24 = icmp eq ptr %23, null
  br i1 %24, label %53, label %25

25:                                               ; preds = %14
  %26 = load i32, ptr %2, align 8, !tbaa !28
  %27 = icmp eq i32 %17, %26
  br i1 %27, label %28, label %.Vec_PtrGrow.exit11_crit_edge.i

.Vec_PtrGrow.exit11_crit_edge.i:                  ; preds = %25
  %.pre.i = load ptr, ptr %.phi.trans.insert.i, align 8, !tbaa !29
  br label %Vec_PtrPush.exit

28:                                               ; preds = %25
  %29 = icmp slt i32 %17, 16
  br i1 %29, label %30, label %37

30:                                               ; preds = %28
  %31 = load ptr, ptr %.phi.trans.insert.i, align 8, !tbaa !29
  %.not9.i.i = icmp eq ptr %31, null
  br i1 %.not9.i.i, label %34, label %32

32:                                               ; preds = %30
  %33 = tail call dereferenceable_or_null(128) ptr @realloc(ptr noundef nonnull %31, i64 noundef 128) #21
  br label %Vec_PtrGrow.exit.i

34:                                               ; preds = %30
  %35 = tail call noalias dereferenceable_or_null(128) ptr @malloc(i64 noundef 128) #18
  br label %Vec_PtrGrow.exit.i

Vec_PtrGrow.exit.i:                               ; preds = %34, %32
  %36 = phi ptr [ %33, %32 ], [ %35, %34 ]
  store ptr %36, ptr %.phi.trans.insert.i, align 8, !tbaa !29
  store i32 16, ptr %2, align 8, !tbaa !28
  br label %Vec_PtrPush.exit

37:                                               ; preds = %28
  %38 = shl nuw nsw i32 %17, 1
  %39 = load ptr, ptr %.phi.trans.insert.i, align 8, !tbaa !29
  %.not9.i10.i = icmp eq ptr %39, null
  %40 = zext nneg i32 %38 to i64
  %41 = shl nuw nsw i64 %40, 3
  br i1 %.not9.i10.i, label %44, label %42

42:                                               ; preds = %37
  %43 = tail call ptr @realloc(ptr noundef nonnull %39, i64 noundef %41) #21
  br label %46

44:                                               ; preds = %37
  %45 = tail call noalias ptr @malloc(i64 noundef %41) #18
  br label %46

46:                                               ; preds = %44, %42
  %47 = phi ptr [ %43, %42 ], [ %45, %44 ]
  store ptr %47, ptr %.phi.trans.insert.i, align 8, !tbaa !29
  store i32 %38, ptr %2, align 8, !tbaa !28
  br label %Vec_PtrPush.exit

Vec_PtrPush.exit:                                 ; preds = %.Vec_PtrGrow.exit11_crit_edge.i, %Vec_PtrGrow.exit.i, %46
  %48 = phi ptr [ %.pre.i, %.Vec_PtrGrow.exit11_crit_edge.i ], [ %47, %46 ], [ %36, %Vec_PtrGrow.exit.i ]
  %49 = load i32, ptr %4, align 4, !tbaa !24
  %50 = add nsw i32 %49, 1
  store i32 %50, ptr %4, align 4, !tbaa !24
  %51 = sext i32 %49 to i64
  %52 = getelementptr inbounds ptr, ptr %48, i64 %51
  store ptr %23, ptr %52, align 8, !tbaa !51
  %.pre = load ptr, ptr %5, align 8, !tbaa !27
  %.pre12 = load i32, ptr %6, align 4, !tbaa !38
  br label %53

53:                                               ; preds = %Vec_PtrPush.exit, %14
  %54 = phi i32 [ %.pre12, %Vec_PtrPush.exit ], [ %15, %14 ]
  %55 = phi ptr [ %.pre, %Vec_PtrPush.exit ], [ %16, %14 ]
  %56 = phi i32 [ %50, %Vec_PtrPush.exit ], [ %17, %14 ]
  %indvars.iv.next = add nuw nsw i64 %indvars.iv, 1
  %57 = sext i32 %54 to i64
  %58 = getelementptr inbounds i32, ptr %55, i64 %57
  %59 = load i32, ptr %58, align 4, !tbaa !39
  %60 = sext i32 %59 to i64
  %61 = icmp slt i64 %indvars.iv.next, %60
  br i1 %61, label %14, label %._crit_edge, !llvm.loop !66

._crit_edge:                                      ; preds = %53, %3
  ret void
}